; Function Attrs: mustprogress uwtable
define internal noundef i32 @_ZL5b_xorP9lua_State(ptr noundef %0) #0 {
  %2 = tail call noundef i32 @_Z10lua_gettopP9lua_State(ptr noundef %0)
  %.not9 = icmp slt i32 %2, 1
  br i1 %.not9, label %._crit_edge, label %.lr.ph

.lr.ph:                                           ; preds = %1, %.lr.ph
  %.011 = phi i32 [ %4, %.lr.ph ], [ 0, %1 ]
  %.0810 = phi i32 [ %5, %.lr.ph ], [ 1, %1 ]
  %3 = tail call noundef i32 @_Z18luaL_checkunsignedP9lua_Statei(ptr noundef %0, i32 noundef %.0810)
  %4 = xor i32 %3, %.011
  %5 = add nuw i32 %.0810, 1
  %exitcond.not = icmp eq i32 %.0810, %2
  br i1 %exitcond.not, label %._crit_edge, label %.lr.ph, !llvm.loop !7

._crit_edge:                                      ; preds = %.lr.ph, %1
  %.0.lcssa = phi i32 [ 0, %1 ], [ %4, %.lr.ph ]
  tail call void @_Z16lua_pushunsignedP9lua_Statej(ptr noundef %0, i32 noundef %.0.lcssa)
  ret i32 1
}